target datalayout = "e-m:e-p270:32:32-p271:32:32-p272:64:64-i64:64-i128:128-f80:128-n8:16:32:64-S128"
target triple = "x86_64-pc-linux-gnu"

%struct.SDL_AtomicInt = type { i32 }
%struct.SDL_SensorDriver = type { ptr, ptr, ptr, ptr, ptr, ptr, ptr, ptr, ptr, ptr, ptr }

@SDL_sensors_initialized = internal global i8 0, align 1
@SDL_sensor_lock_pending = internal global %struct.SDL_AtomicInt zeroinitializer, align 4
@SDL_sensor_lock = internal global ptr null, align 8
@SDL_sensors_locked = internal global i32 0, align 4
@SDL_sensor_drivers = internal global [1 x ptr] [ptr @SDL_DUMMY_SensorDriver], align 8

; Function Attrs: nounwind uwtable
define hidden void @SDL_UnlockSensors() #0 {
  %1 = alloca i8, align 1
  %2 = alloca ptr, align 8
  call void @llvm.lifetime.start.p0(i64 1, ptr %1) #6
  store i8 0, ptr %1, align 1
  %3 = load i32, ptr @SDL_sensors_locked, align 4
  %4 = add nsw i32 %3, -1
  store i32 %4, ptr @SDL_sensors_locked, align 4
  %5 = load i8, ptr @SDL_sensors_initialized, align 1, !range !3, !noundef !4
  %6 = trunc i8 %5 to i1
  br i1 %6, label %15, label %7

7:                                                ; preds = %0
  %8 = load i32, ptr @SDL_sensors_locked, align 4
  %9 = icmp ne i32 %8, 0
  br i1 %9, label %14, label %10

10:                                               ; preds = %7
  %11 = call i32 @SDL_GetAtomicInt_REAL(ptr noundef @SDL_sensor_lock_pending)
  %12 = icmp eq i32 %11, 0
  br i1 %12, label %13, label %14

13:                                               ; preds = %10
  store i8 1, ptr %1, align 1
  br label %14

14:                                               ; preds = %13, %10, %7
  br label %15

15:                                               ; preds = %14, %0
  %16 = load i8, ptr %1, align 1, !range !3, !noundef !4
  %17 = trunc i8 %16 to i1
  br i1 %17, label %18, label %24

18:                                               ; preds = %15
  call void @llvm.lifetime.start.p0(i64 8, ptr %2) #6
  %19 = load ptr, ptr @SDL_sensor_lock, align 8
  store ptr %19, ptr %2, align 8
  %20 = load ptr, ptr %2, align 8
  call void @SDL_LockMutex_REAL(ptr noundef %20)
  %21 = load ptr, ptr @SDL_sensor_lock, align 8
  call void @SDL_UnlockMutex_REAL(ptr noundef %21)
  store ptr null, ptr @SDL_sensor_lock, align 8
  %22 = load ptr, ptr %2, align 8
  call void @SDL_UnlockMutex_REAL(ptr noundef %22)
  %23 = load ptr, ptr %2, align 8
  call void @SDL_DestroyMutex_REAL(ptr noundef %23)
  call void @llvm.lifetime.end.p0(i64 8, ptr %2) #6
  br label %26

24:                                               ; preds = %15
  %25 = load ptr, ptr @SDL_sensor_lock, align 8
  call void @SDL_UnlockMutex_REAL(ptr noundef %25)
  br label %26

26:                                               ; preds = %24, %18
  call void @llvm.lifetime.end.p0(i64 1, ptr %1) #6
  ret void
}

; Function Attrs: nounwind uwtable
define hidden void @SDL_LockSensors() #0 {
  %1 = call i32 @SDL_AddAtomicInt_REAL(ptr noundef @SDL_sensor_lock_pending, i32 noundef 1)
  %2 = load ptr, ptr @SDL_sensor_lock, align 8
  call void @SDL_LockMutex_REAL(ptr noundef %2)
  %3 = call i32 @SDL_AddAtomicInt_REAL(ptr noundef @SDL_sensor_lock_pending, i32 noundef -1)
  %4 = load i32, ptr @SDL_sensors_locked, align 4
  %5 = add nsw i32 %4, 1
  store i32 %5, ptr @SDL_sensors_locked, align 4
  ret void
}

; Function Attrs: nounwind uwtable
define hidden zeroext i1 @SDL_InitSensors() #0 {
  %1 = alloca i1, align 1
  %2 = alloca i32, align 4
  %3 = alloca i8, align 1
  %4 = alloca i32, align 4
  call void @llvm.lifetime.start.p0(i64 4, ptr %2) #6
  call void @llvm.lifetime.start.p0(i64 1, ptr %3) #6
  %5 = load ptr, ptr @SDL_sensor_lock, align 8
  %6 = icmp eq ptr %5, null
  br i1 %6, label %7, label %9

7:                                                ; preds = %0
  %8 = call ptr @SDL_CreateMutex_REAL()
  store ptr %8, ptr @SDL_sensor_lock, align 8
  br label %9

9:                                                ; preds = %7, %0
  %10 = call zeroext i1 @SDL_InitSubSystem_REAL(i32 noundef 16384)
  br i1 %10, label %12, label %11

11:                                               ; preds = %9
  store i1 false, ptr %1, align 1
  store i32 1, ptr %4, align 4
  br label %37

12:                                               ; preds = %9
  call void @SDL_LockSensors()
  store i8 1, ptr @SDL_sensors_initialized, align 1
  store i8 0, ptr %3, align 1
  store i32 0, ptr %2, align 4
  br label %13

13:                                               ; preds = %27, %12
  %14 = load i32, ptr %2, align 4
  %15 = sext i32 %14 to i64
  %16 = icmp ult i64 %15, 1
  br i1 %16, label %17, label %30

17:                                               ; preds = %13
  %18 = load i32, ptr %2, align 4
  %19 = sext i32 %18 to i64
  %20 = getelementptr inbounds [1 x ptr], ptr @SDL_sensor_drivers, i64 0, i64 %19
  %21 = load ptr, ptr %20, align 8
  %22 = getelementptr inbounds nuw %struct.SDL_SensorDriver, ptr %21, i32 0, i32 0
  %23 = load ptr, ptr %22, align 8
  %24 = call zeroext i1 %23()
  br i1 %24, label %25, label %26

25:                                               ; preds = %17
  store i8 1, ptr %3, align 1
  br label %26

26:                                               ; preds = %25, %17
  br label %27

27:                                               ; preds = %26
  %28 = load i32, ptr %2, align 4
  %29 = add nsw i32 %28, 1
  store i32 %29, ptr %2, align 4
  br label %13, !llvm.loop !5

30:                                               ; preds = %13
  call void @SDL_UnlockSensors()
  %31 = load i8, ptr %3, align 1, !range !3, !noundef !4
  %32 = trunc i8 %31 to i1
  br i1 %32, label %34, label %33

33:                                               ; preds = %30
  call void @SDL_QuitSensors()
  br label %34

34:                                               ; preds = %33, %30
  %35 = load i8, ptr %3, align 1, !range !3, !noundef !4
  %36 = trunc i8 %35 to i1
  store i1 %36, ptr %1, align 1
  store i32 1, ptr %4, align 4
  br label %37

37:                                               ; preds = %34, %11
  call void @llvm.lifetime.end.p0(i64 1, ptr %3) #6
  call void @llvm.lifetime.end.p0(i64 4, ptr %2) #6
  %38 = load i1, ptr %1, align 1
  ret i1 %38
}