; Function Attrs: nounwind uwtable
define hidden noundef zeroext i1 @SDL_InitSensors() local_unnamed_addr #1 {
  %1 = load ptr, ptr @SDL_sensor_lock, align 8
  %2 = icmp eq ptr %1, null
  br i1 %2, label %3, label %5

3:                                                ; preds = %0
  %4 = tail call ptr @SDL_CreateMutex_REAL() #9
  store ptr %4, ptr @SDL_sensor_lock, align 8
  br label %5

5:                                                ; preds = %3, %0
  %6 = tail call zeroext i1 @SDL_InitSubSystem_REAL(i32 noundef 16384) #9
  br i1 %6, label %7, label %26

7:                                                ; preds = %5
  %8 = tail call i32 @SDL_AddAtomicInt_REAL(ptr noundef nonnull @SDL_sensor_lock_pending, i32 noundef 1) #9
  %9 = load ptr, ptr @SDL_sensor_lock, align 8
  tail call void @SDL_LockMutex_REAL(ptr noundef %9) #9
  %10 = tail call i32 @SDL_AddAtomicInt_REAL(ptr noundef nonnull @SDL_sensor_lock_pending, i32 noundef -1) #9
  %11 = load i32, ptr @SDL_sensors_locked, align 4
  %12 = add nsw i32 %11, 1
  store i32 %12, ptr @SDL_sensors_locked, align 4
  store i1 true, ptr @SDL_sensors_initialized, align 1
  %13 = load ptr, ptr @SDL_DUMMY_SensorDriver, align 8
  %14 = tail call zeroext i1 %13() #9
  %15 = load i32, ptr @SDL_sensors_locked, align 4
  %16 = add nsw i32 %15, -1
  store i32 %16, ptr @SDL_sensors_locked, align 4
  %.b4.i = load i1, ptr @SDL_sensors_initialized, align 1
  %17 = icmp ne i32 %16, 0
  %or.cond.i = select i1 %.b4.i, i1 true, i1 %17
  br i1 %or.cond.i, label %.critedge.i, label %18

18:                                               ; preds = %7
  %19 = tail call i32 @SDL_GetAtomicInt_REAL(ptr noundef nonnull @SDL_sensor_lock_pending) #9
  %20 = icmp eq i32 %19, 0
  br i1 %20, label %21, label %.critedge.i

21:                                               ; preds = %18
  %22 = load ptr, ptr @SDL_sensor_lock, align 8
  tail call void @SDL_LockMutex_REAL(ptr noundef %22) #9
  %23 = load ptr, ptr @SDL_sensor_lock, align 8
  tail call void @SDL_UnlockMutex_REAL(ptr noundef %23) #9
  store ptr null, ptr @SDL_sensor_lock, align 8
  tail call void @SDL_UnlockMutex_REAL(ptr noundef %22) #9
  tail call void @SDL_DestroyMutex_REAL(ptr noundef %22) #9
  br label %SDL_UnlockSensors.exit

.critedge.i:                                      ; preds = %18, %7
  %24 = load ptr, ptr @SDL_sensor_lock, align 8
  tail call void @SDL_UnlockMutex_REAL(ptr noundef %24) #9
  br label %SDL_UnlockSensors.exit

SDL_UnlockSensors.exit:                           ; preds = %21, %.critedge.i
  br i1 %14, label %26, label %25

25:                                               ; preds = %SDL_UnlockSensors.exit
  tail call void @SDL_QuitSensors()
  br label %26

26:                                               ; preds = %SDL_UnlockSensors.exit, %25, %5
  %.06 = phi i1 [ false, %5 ], [ false, %25 ], [ true, %SDL_UnlockSensors.exit ]
  ret i1 %.06
}